target datalayout = "e-m:e-p270:32:32-p271:32:32-p272:64:64-i64:64-i128:128-f80:128-n8:16:32:64-S128"
target triple = "x86_64-pc-linux-gnu"

%struct.prov_aes_hmac_sha_ctx_st = type { %struct.prov_cipher_ctx_st, %struct.aes_key_st, i64, %union.anon.0, ptr, i32, i32, i64, i64, i64 }
%struct.prov_cipher_ctx_st = type { [16 x i8], [16 x i8], [16 x i8], ptr, %union.anon, i32, i64, i64, i64, i64, i32, i8, i32, ptr, i32, i64, i32, i64, i32, ptr, ptr, ptr }
%union.anon = type { ptr }
%struct.aes_key_st = type { [60 x i32], i32 }
%union.anon.0 = type { i32, [12 x i8] }
%struct.prov_aes_hmac_sha256_ctx_st = type { %struct.prov_aes_hmac_sha_ctx_st, %struct.SHA256state_st, %struct.SHA256state_st, %struct.SHA256state_st }
%struct.SHA256state_st = type { [8 x i32], i32, i32, [16 x i32], i32, i32 }

; Function Attrs: nounwind uwtable
define internal void @sha256_update(ptr noundef %0, ptr noundef %1, i64 noundef %2) #0 {
  %4 = alloca ptr, align 8
  %5 = alloca ptr, align 8
  %6 = alloca i64, align 8
  %7 = alloca ptr, align 8
  %8 = alloca i64, align 8
  store ptr %0, ptr %4, align 8, !tbaa !61
  store ptr %1, ptr %5, align 8, !tbaa !37
  store i64 %2, ptr %6, align 8, !tbaa !12
  call void @llvm.lifetime.start.p0(i64 8, ptr %7) #7
  %9 = load ptr, ptr %5, align 8, !tbaa !37
  store ptr %9, ptr %7, align 8, !tbaa !10
  call void @llvm.lifetime.start.p0(i64 8, ptr %8) #7
  %10 = load ptr, ptr %4, align 8, !tbaa !61
  %11 = getelementptr inbounds nuw %struct.SHA256state_st, ptr %10, i32 0, i32 4
  %12 = load i32, ptr %11, align 4, !tbaa !63
  %13 = zext i32 %12 to i64
  store i64 %13, ptr %8, align 8, !tbaa !12
  %14 = icmp ne i64 %13, 0
  br i1 %14, label %15, label %34

15:                                               ; preds = %3
  %16 = load i64, ptr %8, align 8, !tbaa !12
  %17 = sub i64 64, %16
  store i64 %17, ptr %8, align 8, !tbaa !12
  %18 = load i64, ptr %6, align 8, !tbaa !12
  %19 = load i64, ptr %8, align 8, !tbaa !12
  %20 = icmp ult i64 %18, %19
  br i1 %20, label %21, label %23

21:                                               ; preds = %15
  %22 = load i64, ptr %6, align 8, !tbaa !12
  store i64 %22, ptr %8, align 8, !tbaa !12
  br label %23

23:                                               ; preds = %21, %15
  %24 = load ptr, ptr %4, align 8, !tbaa !61
  %25 = load ptr, ptr %7, align 8, !tbaa !10
  %26 = load i64, ptr %8, align 8, !tbaa !12
  %27 = call i32 @SHA256_Update(ptr noundef %24, ptr noundef %25, i64 noundef %26)
  %28 = load i64, ptr %8, align 8, !tbaa !12
  %29 = load ptr, ptr %7, align 8, !tbaa !10
  %30 = getelementptr inbounds nuw i8, ptr %29, i64 %28
  store ptr %30, ptr %7, align 8, !tbaa !10
  %31 = load i64, ptr %8, align 8, !tbaa !12
  %32 = load i64, ptr %6, align 8, !tbaa !12
  %33 = sub i64 %32, %31
  store i64 %33, ptr %6, align 8, !tbaa !12
  br label %34

34:                                               ; preds = %23, %3
  %35 = load i64, ptr %6, align 8, !tbaa !12
  %36 = urem i64 %35, 64
  store i64 %36, ptr %8, align 8, !tbaa !12
  %37 = load i64, ptr %8, align 8, !tbaa !12
  %38 = load i64, ptr %6, align 8, !tbaa !12
  %39 = sub i64 %38, %37
  store i64 %39, ptr %6, align 8, !tbaa !12
  %40 = load i64, ptr %6, align 8, !tbaa !12
  %41 = icmp ne i64 %40, 0
  br i1 %41, label %42, label %78

42:                                               ; preds = %34
  %43 = load ptr, ptr %4, align 8, !tbaa !61
  %44 = load ptr, ptr %7, align 8, !tbaa !10
  %45 = load i64, ptr %6, align 8, !tbaa !12
  %46 = udiv i64 %45, 64
  call void @sha256_block_data_order(ptr noundef %43, ptr noundef %44, i64 noundef %46)
  %47 = load i64, ptr %6, align 8, !tbaa !12
  %48 = load ptr, ptr %7, align 8, !tbaa !10
  %49 = getelementptr inbounds nuw i8, ptr %48, i64 %47
  store ptr %49, ptr %7, align 8, !tbaa !10
  %50 = load i64, ptr %6, align 8, !tbaa !12
  %51 = lshr i64 %50, 29
  %52 = load ptr, ptr %4, align 8, !tbaa !61
  %53 = getelementptr inbounds nuw %struct.SHA256state_st, ptr %52, i32 0, i32 2
  %54 = load i32, ptr %53, align 4, !tbaa !64
  %55 = zext i32 %54 to i64
  %56 = add i64 %55, %51
  %57 = trunc i64 %56 to i32
  store i32 %57, ptr %53, align 4, !tbaa !64
  %58 = load i64, ptr %6, align 8, !tbaa !12
  %59 = shl i64 %58, 3
  store i64 %59, ptr %6, align 8, !tbaa !12
  %60 = load ptr, ptr %4, align 8, !tbaa !61
  %61 = getelementptr inbounds nuw %struct.SHA256state_st, ptr %60, i32 0, i32 1
  %62 = load i32, ptr %61, align 4, !tbaa !65
  %63 = zext i32 %62 to i64
  %64 = add i64 %63, %59
  %65 = trunc i64 %64 to i32
  store i32 %65, ptr %61, align 4, !tbaa !65
  %66 = load ptr, ptr %4, align 8, !tbaa !61
  %67 = getelementptr inbounds nuw %struct.SHA256state_st, ptr %66, i32 0, i32 1
  %68 = load i32, ptr %67, align 4, !tbaa !65
  %69 = load i64, ptr %6, align 8, !tbaa !12
  %70 = trunc i64 %69 to i32
  %71 = icmp ult i32 %68, %70
  br i1 %71, label %72, label %77

72:                                               ; preds = %42
  %73 = load ptr, ptr %4, align 8, !tbaa !61
  %74 = getelementptr inbounds nuw %struct.SHA256state_st, ptr %73, i32 0, i32 2
  %75 = load i32, ptr %74, align 4, !tbaa !64
  %76 = add i32 %75, 1
  store i32 %76, ptr %74, align 4, !tbaa !64
  br label %77

77:                                               ; preds = %72, %42
  br label %78

78:                                               ; preds = %77, %34
  %79 = load i64, ptr %8, align 8, !tbaa !12
  %80 = icmp ne i64 %79, 0
  br i1 %80, label %81, label %86

81:                                               ; preds = %78
  %82 = load ptr, ptr %4, align 8, !tbaa !61
  %83 = load ptr, ptr %7, align 8, !tbaa !10
  %84 = load i64, ptr %8, align 8, !tbaa !12
  %85 = call i32 @SHA256_Update(ptr noundef %82, ptr noundef %83, i64 noundef %84)
  br label %86

86:                                               ; preds = %81, %78
  call void @llvm.lifetime.end.p0(i64 8, ptr %8) #7
  call void @llvm.lifetime.end.p0(i64 8, ptr %7) #7
  ret void
}

; Function Attrs: nounwind uwtable
define internal i32 @aesni_cbc_hmac_sha256_set_tls1_aad(ptr noundef %0, ptr noundef %1, i32 noundef %2) #0 {
  %4 = alloca i32, align 4
  %5 = alloca ptr, align 8
  %6 = alloca ptr, align 8
  %7 = alloca i32, align 4
  %8 = alloca ptr, align 8
  %9 = alloca ptr, align 8
  %10 = alloca ptr, align 8
  %11 = alloca i32, align 4
  %12 = alloca i32, align 4
  store ptr %0, ptr %5, align 8, !tbaa !37
  store ptr %1, ptr %6, align 8, !tbaa !10
  store i32 %2, ptr %7, align 4, !tbaa !3
  call void @llvm.lifetime.start.p0(i64 8, ptr %8) #7
  %13 = load ptr, ptr %5, align 8, !tbaa !37
  store ptr %13, ptr %8, align 8, !tbaa !14
  call void @llvm.lifetime.start.p0(i64 8, ptr %9) #7
  %14 = load ptr, ptr %5, align 8, !tbaa !37
  store ptr %14, ptr %9, align 8, !tbaa !16
  call void @llvm.lifetime.start.p0(i64 8, ptr %10) #7
  %15 = load ptr, ptr %6, align 8, !tbaa !10
  store ptr %15, ptr %10, align 8, !tbaa !10
  call void @llvm.lifetime.start.p0(i64 4, ptr %11) #7
  %16 = load i32, ptr %7, align 4, !tbaa !3
  %17 = icmp ne i32 %16, 13
  br i1 %17, label %18, label %19

18:                                               ; preds = %3
  store i32 -1, ptr %4, align 4
  store i32 1, ptr %12, align 4
  br label %122

19:                                               ; preds = %3
  %20 = load ptr, ptr %10, align 8, !tbaa !10
  %21 = load i32, ptr %7, align 4, !tbaa !3
  %22 = sub nsw i32 %21, 2
  %23 = sext i32 %22 to i64
  %24 = getelementptr inbounds i8, ptr %20, i64 %23
  %25 = load i8, ptr %24, align 1, !tbaa !26
  %26 = zext i8 %25 to i32
  %27 = shl i32 %26, 8
  %28 = load ptr, ptr %10, align 8, !tbaa !10
  %29 = load i32, ptr %7, align 4, !tbaa !3
  %30 = sub nsw i32 %29, 1
  %31 = sext i32 %30 to i64
  %32 = getelementptr inbounds i8, ptr %28, i64 %31
  %33 = load i8, ptr %32, align 1, !tbaa !26
  %34 = zext i8 %33 to i32
  %35 = or i32 %27, %34
  store i32 %35, ptr %11, align 4, !tbaa !3
  %36 = load ptr, ptr %8, align 8, !tbaa !14
  %37 = getelementptr inbounds nuw %struct.prov_aes_hmac_sha_ctx_st, ptr %36, i32 0, i32 0
  %38 = getelementptr inbounds nuw %struct.prov_cipher_ctx_st, ptr %37, i32 0, i32 11
  %39 = load i8, ptr %38, align 4
  %40 = lshr i8 %39, 1
  %41 = and i8 %40, 1
  %42 = zext i8 %41 to i32
  %43 = icmp ne i32 %42, 0
  br i1 %43, label %44, label %109

44:                                               ; preds = %19
  %45 = load i32, ptr %11, align 4, !tbaa !3
  %46 = zext i32 %45 to i64
  %47 = load ptr, ptr %8, align 8, !tbaa !14
  %48 = getelementptr inbounds nuw %struct.prov_aes_hmac_sha_ctx_st, ptr %47, i32 0, i32 2
  store i64 %46, ptr %48, align 8, !tbaa !27
  %49 = load ptr, ptr %10, align 8, !tbaa !10
  %50 = load i32, ptr %7, align 4, !tbaa !3
  %51 = sub nsw i32 %50, 4
  %52 = sext i32 %51 to i64
  %53 = getelementptr inbounds i8, ptr %49, i64 %52
  %54 = load i8, ptr %53, align 1, !tbaa !26
  %55 = zext i8 %54 to i32
  %56 = shl i32 %55, 8
  %57 = load ptr, ptr %10, align 8, !tbaa !10
  %58 = load i32, ptr %7, align 4, !tbaa !3
  %59 = sub nsw i32 %58, 3
  %60 = sext i32 %59 to i64
  %61 = getelementptr inbounds i8, ptr %57, i64 %60
  %62 = load i8, ptr %61, align 1, !tbaa !26
  %63 = zext i8 %62 to i32
  %64 = or i32 %56, %63
  %65 = load ptr, ptr %8, align 8, !tbaa !14
  %66 = getelementptr inbounds nuw %struct.prov_aes_hmac_sha_ctx_st, ptr %65, i32 0, i32 3
  store i32 %64, ptr %66, align 8, !tbaa !26
  %67 = icmp uge i32 %64, 770
  br i1 %67, label %68, label %90

68:                                               ; preds = %44
  %69 = load i32, ptr %11, align 4, !tbaa !3
  %70 = icmp ult i32 %69, 16
  br i1 %70, label %71, label %72

71:                                               ; preds = %68
  store i32 0, ptr %4, align 4
  store i32 1, ptr %12, align 4
  br label %122

72:                                               ; preds = %68
  %73 = load i32, ptr %11, align 4, !tbaa !3
  %74 = sub i32 %73, 16
  store i32 %74, ptr %11, align 4, !tbaa !3
  %75 = load i32, ptr %11, align 4, !tbaa !3
  %76 = lshr i32 %75, 8
  %77 = trunc i32 %76 to i8
  %78 = load ptr, ptr %10, align 8, !tbaa !10
  %79 = load i32, ptr %7, align 4, !tbaa !3
  %80 = sub nsw i32 %79, 2
  %81 = sext i32 %80 to i64
  %82 = getelementptr inbounds i8, ptr %78, i64 %81
  store i8 %77, ptr %82, align 1, !tbaa !26
  %83 = load i32, ptr %11, align 4, !tbaa !3
  %84 = trunc i32 %83 to i8
  %85 = load ptr, ptr %10, align 8, !tbaa !10
  %86 = load i32, ptr %7, align 4, !tbaa !3
  %87 = sub nsw i32 %86, 1
  %88 = sext i32 %87 to i64
  %89 = getelementptr inbounds i8, ptr %85, i64 %88
  store i8 %84, ptr %89, align 1, !tbaa !26
  br label %90

90:                                               ; preds = %72, %44
  %91 = load ptr, ptr %9, align 8, !tbaa !16
  %92 = getelementptr inbounds nuw %struct.prov_aes_hmac_sha256_ctx_st, ptr %91, i32 0, i32 3
  %93 = load ptr, ptr %9, align 8, !tbaa !16
  %94 = getelementptr inbounds nuw %struct.prov_aes_hmac_sha256_ctx_st, ptr %93, i32 0, i32 1
  call void @llvm.memcpy.p0.p0.i64(ptr align 8 %92, ptr align 8 %94, i64 112, i1 false), !tbaa.struct !25
  %95 = load ptr, ptr %9, align 8, !tbaa !16
  %96 = getelementptr inbounds nuw %struct.prov_aes_hmac_sha256_ctx_st, ptr %95, i32 0, i32 3
  %97 = load ptr, ptr %10, align 8, !tbaa !10
  %98 = load i32, ptr %7, align 4, !tbaa !3
  %99 = sext i32 %98 to i64
  call void @sha256_update(ptr noundef %96, ptr noundef %97, i64 noundef %99)
  %100 = load i32, ptr %11, align 4, !tbaa !3
  %101 = add i32 %100, 32
  %102 = add i32 %101, 16
  %103 = and i32 %102, -16
  %104 = load i32, ptr %11, align 4, !tbaa !3
  %105 = sub i32 %103, %104
  %106 = sext i32 %105 to i64
  %107 = load ptr, ptr %8, align 8, !tbaa !14
  %108 = getelementptr inbounds nuw %struct.prov_aes_hmac_sha_ctx_st, ptr %107, i32 0, i32 9
  store i64 %106, ptr %108, align 8, !tbaa !52
  store i32 1, ptr %4, align 4
  store i32 1, ptr %12, align 4
  br label %122

109:                                              ; preds = %19
  %110 = load ptr, ptr %8, align 8, !tbaa !14
  %111 = getelementptr inbounds nuw %struct.prov_aes_hmac_sha_ctx_st, ptr %110, i32 0, i32 3
  %112 = getelementptr inbounds [16 x i8], ptr %111, i64 0, i64 0
  %113 = load ptr, ptr %10, align 8, !tbaa !10
  %114 = load i32, ptr %7, align 4, !tbaa !3
  %115 = sext i32 %114 to i64
  call void @llvm.memcpy.p0.p0.i64(ptr align 8 %112, ptr align 1 %113, i64 %115, i1 false)
  %116 = load i32, ptr %7, align 4, !tbaa !3
  %117 = sext i32 %116 to i64
  %118 = load ptr, ptr %8, align 8, !tbaa !14
  %119 = getelementptr inbounds nuw %struct.prov_aes_hmac_sha_ctx_st, ptr %118, i32 0, i32 2
  store i64 %117, ptr %119, align 8, !tbaa !27
  %120 = load ptr, ptr %8, align 8, !tbaa !14
  %121 = getelementptr inbounds nuw %struct.prov_aes_hmac_sha_ctx_st, ptr %120, i32 0, i32 9
  store i64 32, ptr %121, align 8, !tbaa !52
  store i32 1, ptr %4, align 4
  store i32 1, ptr %12, align 4
  br label %122

122:                                              ; preds = %109, %90, %71, %18
  call void @llvm.lifetime.end.p0(i64 4, ptr %11) #7
  call void @llvm.lifetime.end.p0(i64 8, ptr %10) #7
  call void @llvm.lifetime.end.p0(i64 8, ptr %9) #7
  call void @llvm.lifetime.end.p0(i64 8, ptr %8) #7
  %123 = load i32, ptr %4, align 4
  ret i32 %123
}