; Function Attrs: nounwind uwtable
define internal range(i32 -1, 2) i32 @aesni_cbc_hmac_sha256_set_tls1_aad(ptr noundef %0, ptr noundef %1, i32 noundef %2) #0 {
  %.not = icmp eq i32 %2, 13
  br i1 %.not, label %4, label %56

4:                                                ; preds = %3
  %5 = getelementptr inbounds nuw i8, ptr %1, i64 11
  %6 = load i8, ptr %5, align 1, !tbaa !18
  %7 = zext i8 %6 to i32
  %8 = shl nuw nsw i32 %7, 8
  %9 = getelementptr inbounds nuw i8, ptr %1, i64 12
  %10 = load i8, ptr %9, align 1, !tbaa !18
  %11 = zext i8 %10 to i32
  %12 = or disjoint i32 %8, %11
  %13 = getelementptr inbounds nuw i8, ptr %0, i64 108
  %14 = load i8, ptr %13, align 4
  %15 = and i8 %14, 2
  %.not41 = icmp eq i8 %15, 0
  br i1 %.not41, label %52, label %16

16:                                               ; preds = %4
  %17 = zext nneg i32 %12 to i64
  %18 = getelementptr inbounds nuw i8, ptr %0, i64 440
  store i64 %17, ptr %18, align 8, !tbaa !19
  %19 = getelementptr inbounds nuw i8, ptr %1, i64 9
  %20 = load i8, ptr %19, align 1, !tbaa !18
  %21 = zext i8 %20 to i32
  %22 = shl nuw nsw i32 %21, 8
  %23 = getelementptr inbounds nuw i8, ptr %1, i64 10
  %24 = load i8, ptr %23, align 1, !tbaa !18
  %25 = zext i8 %24 to i32
  %26 = or disjoint i32 %22, %25
  %27 = getelementptr inbounds nuw i8, ptr %0, i64 448
  store i32 %26, ptr %27, align 8, !tbaa !18
  %28 = icmp samesign ugt i32 %26, 769
  br i1 %28, label %29, label %36

29:                                               ; preds = %16
  %30 = icmp samesign ult i32 %12, 16
  br i1 %30, label %56, label %31

31:                                               ; preds = %29
  %32 = add nsw i32 %12, -16
  %33 = lshr i32 %32, 8
  %34 = trunc nuw i32 %33 to i8
  store i8 %34, ptr %5, align 1, !tbaa !18
  %35 = trunc i32 %32 to i8
  store i8 %35, ptr %9, align 1, !tbaa !18
  br label %36

36:                                               ; preds = %31, %16
  %.0 = phi i32 [ %32, %31 ], [ %12, %16 ]
  %37 = getelementptr inbounds nuw i8, ptr %0, i64 728
  %38 = getelementptr inbounds nuw i8, ptr %0, i64 504
  tail call void @llvm.memcpy.p0.p0.i64(ptr noundef nonnull align 8 dereferenceable(112) %37, ptr noundef nonnull align 8 dereferenceable(112) %38, i64 112, i1 false), !tbaa.struct !17
  %39 = getelementptr inbounds nuw i8, ptr %0, i64 832
  %40 = load i32, ptr %39, align 4, !tbaa !29
  %.not.i = icmp eq i32 %40, 0
  br i1 %.not.i, label %.thread45, label %41

41:                                               ; preds = %36
  %42 = zext i32 %40 to i64
  %43 = sub nsw i64 64, %42
  %spec.select.i = tail call i64 @llvm.umin.i64(i64 %43, i64 13)
  %44 = tail call i32 @SHA256_Update(ptr noundef nonnull %37, ptr noundef nonnull %1, i64 noundef %spec.select.i) #8
  %45 = getelementptr inbounds nuw i8, ptr %1, i64 %spec.select.i
  %46 = sub nuw nsw i64 13, %spec.select.i
  %.not40.i = icmp ugt i64 %43, 12
  br i1 %.not40.i, label %sha256_update.exit, label %.thread45

.thread45:                                        ; preds = %36, %41
  %.1.i48 = phi ptr [ %45, %41 ], [ %1, %36 ]
  %47 = phi i64 [ %46, %41 ], [ 13, %36 ]
  %48 = tail call i32 @SHA256_Update(ptr noundef nonnull %37, ptr noundef nonnull %.1.i48, i64 noundef %47) #8
  br label %sha256_update.exit

sha256_update.exit:                               ; preds = %41, %.thread45
  %49 = and i32 %.0, 15
  %50 = sub nuw nsw i32 48, %49
  %51 = zext nneg i32 %50 to i64
  br label %.sink.split

52:                                               ; preds = %4
  %53 = getelementptr inbounds nuw i8, ptr %0, i64 448
  tail call void @llvm.memcpy.p0.p0.i64(ptr noundef nonnull align 8 dereferenceable(13) %53, ptr noundef nonnull align 1 dereferenceable(13) %1, i64 13, i1 false)
  %54 = getelementptr inbounds nuw i8, ptr %0, i64 440
  store i64 13, ptr %54, align 8, !tbaa !19
  br label %.sink.split

.sink.split:                                      ; preds = %sha256_update.exit, %52
  %.sink = phi i64 [ 32, %52 ], [ %51, %sha256_update.exit ]
  %55 = getelementptr inbounds nuw i8, ptr %0, i64 496
  store i64 %.sink, ptr %55, align 8, !tbaa !45
  br label %56

56:                                               ; preds = %.sink.split, %29, %3
  %.038 = phi i32 [ -1, %3 ], [ 0, %29 ], [ 1, %.sink.split ]
  ret i32 %.038
}